; Function Attrs: nounwind uwtable
define dso_local range(i32 -2147483648, 1) i32 @nghttp2_session_on_response_headers_received(ptr noundef %0, ptr noundef %1, ptr noundef captures(none) %2) local_unnamed_addr #1 {
  %4 = getelementptr inbounds nuw i8, ptr %1, i64 8
  %5 = load i32, ptr %4, align 8, !tbaa !111
  %6 = icmp eq i32 %5, 0
  br i1 %6, label %7, label %27

7:                                                ; preds = %3
  %8 = getelementptr inbounds nuw i8, ptr %0, i64 2368
  %9 = load ptr, ptr %8, align 8, !tbaa !190
  %.not.i14 = icmp eq ptr %9, null
  br i1 %.not.i14, label %14, label %10

10:                                               ; preds = %7
  %11 = getelementptr inbounds nuw i8, ptr %0, i64 2568
  %12 = load ptr, ptr %11, align 8, !tbaa !89
  %13 = tail call i32 %9(ptr noundef nonnull %0, ptr noundef nonnull %1, i32 noundef -505, ptr noundef %12) #20
  %.not10.i = icmp eq i32 %13, 0
  br i1 %.not10.i, label %14, label %session_handle_invalid_connection.exit.thread24

14:                                               ; preds = %10, %7
  %15 = getelementptr inbounds nuw i8, ptr %0, i64 2845
  %16 = load i8, ptr %15, align 1, !tbaa !4
  %17 = and i8 %16, 1
  %.not.i.i.i = icmp eq i8 %17, 0
  br i1 %.not.i.i.i, label %18, label %session_handle_invalid_connection.exit.thread

18:                                               ; preds = %14
  %19 = getelementptr inbounds nuw i8, ptr %0, i64 2724
  %20 = load i32, ptr %19, align 4, !tbaa !38
  %21 = getelementptr inbounds nuw i8, ptr %0, i64 952
  store i32 15, ptr %21, align 8, !tbaa !39
  %22 = tail call i32 @nghttp2_session_add_goaway(ptr noundef nonnull %0, i32 noundef %20, i32 noundef 1, ptr noundef nonnull readonly @.str.6, i64 noundef 32, i8 noundef zeroext 1)
  %.fr33 = freeze i32 %22
  %.not17.i.i.i = icmp eq i32 %.fr33, 0
  br i1 %.not17.i.i.i, label %23, label %session_handle_invalid_connection.exit

23:                                               ; preds = %18
  %24 = load i8, ptr %15, align 1, !tbaa !4
  %25 = or i8 %24, 1
  store i8 %25, ptr %15, align 1, !tbaa !4
  br label %session_handle_invalid_connection.exit.thread

session_handle_invalid_connection.exit:           ; preds = %18
  %26 = icmp sgt i32 %.fr33, -901
  br i1 %26, label %session_handle_invalid_connection.exit.thread, label %session_handle_invalid_connection.exit.thread24

session_handle_invalid_connection.exit.thread:    ; preds = %14, %23, %session_handle_invalid_connection.exit
  br label %session_handle_invalid_connection.exit.thread24

27:                                               ; preds = %3
  %28 = getelementptr inbounds nuw i8, ptr %2, i64 217
  %29 = load i8, ptr %28, align 1, !tbaa !160
  %30 = and i8 %29, 1
  %.not = icmp eq i8 %30, 0
  br i1 %.not, label %51, label %31

31:                                               ; preds = %27
  %32 = getelementptr inbounds nuw i8, ptr %0, i64 2368
  %33 = load ptr, ptr %32, align 8, !tbaa !190
  %.not.i16 = icmp eq ptr %33, null
  br i1 %.not.i16, label %38, label %34

34:                                               ; preds = %31
  %35 = getelementptr inbounds nuw i8, ptr %0, i64 2568
  %36 = load ptr, ptr %35, align 8, !tbaa !89
  %37 = tail call i32 %33(ptr noundef nonnull %0, ptr noundef nonnull %1, i32 noundef -510, ptr noundef %36) #20
  %.not10.i17 = icmp eq i32 %37, 0
  br i1 %.not10.i17, label %38, label %session_handle_invalid_connection.exit.thread24

38:                                               ; preds = %34, %31
  %39 = getelementptr inbounds nuw i8, ptr %0, i64 2845
  %40 = load i8, ptr %39, align 1, !tbaa !4
  %41 = and i8 %40, 1
  %.not.i.i.i19 = icmp eq i8 %41, 0
  br i1 %.not.i.i.i19, label %42, label %session_handle_invalid_connection.exit21.thread

42:                                               ; preds = %38
  %43 = getelementptr inbounds nuw i8, ptr %0, i64 2724
  %44 = load i32, ptr %43, align 4, !tbaa !38
  %45 = getelementptr inbounds nuw i8, ptr %0, i64 952
  store i32 15, ptr %45, align 8, !tbaa !39
  %46 = tail call i32 @nghttp2_session_add_goaway(ptr noundef nonnull %0, i32 noundef %44, i32 noundef 5, ptr noundef nonnull readonly @.str.3, i64 noundef 22, i8 noundef zeroext 1)
  %.fr = freeze i32 %46
  %.not17.i.i.i20 = icmp eq i32 %.fr, 0
  br i1 %.not17.i.i.i20, label %47, label %session_handle_invalid_connection.exit21

47:                                               ; preds = %42
  %48 = load i8, ptr %39, align 1, !tbaa !4
  %49 = or i8 %48, 1
  store i8 %49, ptr %39, align 1, !tbaa !4
  br label %session_handle_invalid_connection.exit21.thread

session_handle_invalid_connection.exit21:         ; preds = %42
  %50 = icmp sgt i32 %.fr, -901
  br i1 %50, label %session_handle_invalid_connection.exit21.thread, label %session_handle_invalid_connection.exit.thread24

session_handle_invalid_connection.exit21.thread:  ; preds = %38, %47, %session_handle_invalid_connection.exit21
  br label %session_handle_invalid_connection.exit.thread24

51:                                               ; preds = %27
  %52 = getelementptr inbounds nuw i8, ptr %2, i64 204
  store i32 2, ptr %52, align 4, !tbaa !42
  %53 = getelementptr inbounds nuw i8, ptr %0, i64 2416
  %54 = load ptr, ptr %53, align 8, !tbaa !191
  %.not.i = icmp eq ptr %54, null
  br i1 %.not.i, label %session_handle_invalid_connection.exit.thread24, label %55

55:                                               ; preds = %51
  %56 = getelementptr inbounds nuw i8, ptr %0, i64 2568
  %57 = load ptr, ptr %56, align 8, !tbaa !89
  %58 = tail call i32 %54(ptr noundef nonnull %0, ptr noundef nonnull %1, ptr noundef %57) #20
  %switch.selectcmp.i = icmp eq i32 %58, 0
  %switch.select.i = select i1 %switch.selectcmp.i, i32 0, i32 -902
  %switch.selectcmp11.i = icmp eq i32 %58, -521
  %switch.select12.i = select i1 %switch.selectcmp11.i, i32 -521, i32 %switch.select.i
  br label %session_handle_invalid_connection.exit.thread24

session_handle_invalid_connection.exit.thread24:  ; preds = %55, %51, %34, %10, %session_handle_invalid_connection.exit21.thread, %session_handle_invalid_connection.exit21, %session_handle_invalid_connection.exit.thread, %session_handle_invalid_connection.exit
  %.0 = phi i32 [ -103, %session_handle_invalid_connection.exit.thread ], [ %.fr33, %session_handle_invalid_connection.exit ], [ -103, %session_handle_invalid_connection.exit21.thread ], [ %.fr, %session_handle_invalid_connection.exit21 ], [ -902, %10 ], [ -902, %34 ], [ %switch.select12.i, %55 ], [ 0, %51 ]
  ret i32 %.0
}